target datalayout = "e-m:e-p270:32:32-p271:32:32-p272:64:64-i64:64-i128:128-f80:128-n8:16:32:64-S128"
target triple = "x86_64-pc-linux-gnu"

; Function Attrs: nounwind uwtable
define internal void @MaybeRemoveDevice(ptr noundef %0) #0 {
  %2 = alloca ptr, align 8
  store ptr %0, ptr %2, align 8
  %3 = load ptr, ptr %2, align 8
  %4 = icmp ne ptr %3, null
  br i1 %4, label %5, label %8

5:                                                ; preds = %1
  %6 = load ptr, ptr %2, align 8
  %7 = call ptr @SDL_FindPhysicalCameraByCallback(ptr noundef @FindV4L2CameraByPathCallback, ptr noundef %6)
  call void @SDL_CameraDisconnected(ptr noundef %7)
  br label %8

8:                                                ; preds = %5, %1
  ret void
}

; Function Attrs: nounwind uwtable
define internal void @CameraUdevCallback(i32 noundef %0, i32 noundef %1, ptr noundef %2) #0 {
  %4 = alloca i32, align 4
  %5 = alloca i32, align 4
  %6 = alloca ptr, align 8
  store i32 %0, ptr %4, align 4
  store i32 %1, ptr %5, align 4
  store ptr %2, ptr %6, align 8
  %7 = load ptr, ptr %6, align 8
  %8 = icmp ne ptr %7, null
  br i1 %8, label %9, label %25

9:                                                ; preds = %3
  %10 = load i32, ptr %5, align 4
  %11 = and i32 %10, 256
  %12 = icmp ne i32 %11, 0
  br i1 %12, label %13, label %25

13:                                               ; preds = %9
  %14 = load i32, ptr %4, align 4
  %15 = icmp eq i32 %14, 1
  br i1 %15, label %16, label %18

16:                                               ; preds = %13
  %17 = load ptr, ptr %6, align 8
  call void @MaybeAddDevice(ptr noundef %17)
  br label %24

18:                                               ; preds = %13
  %19 = load i32, ptr %4, align 4
  %20 = icmp eq i32 %19, 2
  br i1 %20, label %21, label %23

21:                                               ; preds = %18
  %22 = load ptr, ptr %6, align 8
  call void @MaybeRemoveDevice(ptr noundef %22)
  br label %23

23:                                               ; preds = %21, %18
  br label %24

24:                                               ; preds = %23, %16
  br label %25

25:                                               ; preds = %24, %9, %3
  ret void
}