; Function Attrs: nounwind uwtable
define internal void @CameraUdevCallback(i32 noundef %0, i32 noundef %1, ptr noundef %2) #1 {
  %.not = icmp eq ptr %2, null
  %4 = and i32 %1, 256
  %.not6 = icmp eq i32 %4, 0
  %or.cond = or i1 %.not, %.not6
  br i1 %or.cond, label %9, label %5

5:                                                ; preds = %3
  switch i32 %0, label %9 [
    i32 1, label %6
    i32 2, label %7
  ]

6:                                                ; preds = %5
  tail call fastcc void @MaybeAddDevice(ptr noundef %2)
  br label %9

7:                                                ; preds = %5
  %8 = tail call ptr @SDL_FindPhysicalCameraByCallback(ptr noundef nonnull @FindV4L2CameraByPathCallback, ptr noundef nonnull %2) #11
  tail call void @SDL_CameraDisconnected(ptr noundef %8) #11
  br label %9

9:                                                ; preds = %5, %6, %7, %3
  ret void
}